target datalayout = "e-m:e-p270:32:32-p271:32:32-p272:64:64-i64:64-i128:128-f80:128-n8:16:32:64-S128"
target triple = "x86_64-pc-linux-gnu"

@.str.9 = private unnamed_addr constant [31 x i8] c"../openssl/test/fake_rsaprov.c\00", align 1
@.str.10 = private unnamed_addr constant [70 x i8] c"OSSL_PROVIDER_add_builtin(libctx, \22fake-rsa\22, fake_rsa_provider_init)\00", align 1
@.str.11 = private unnamed_addr constant [9 x i8] c"fake-rsa\00", align 1
@.str.12 = private unnamed_addr constant [50 x i8] c"p = OSSL_PROVIDER_try_load(libctx, \22fake-rsa\22, 1)\00", align 1

; Function Attrs: nounwind uwtable
define dso_local ptr @fake_rsa_start(ptr noundef %0) #0 {
  %2 = alloca ptr, align 8
  %3 = alloca ptr, align 8
  %4 = alloca ptr, align 8
  %5 = alloca i32, align 4
  store ptr %0, ptr %3, align 8, !tbaa !8
  call void @llvm.lifetime.start.p0(i64 8, ptr %4) #6
  %6 = load ptr, ptr %3, align 8, !tbaa !8
  %7 = call i32 @OSSL_PROVIDER_add_builtin(ptr noundef %6, ptr noundef @.str.11, ptr noundef @fake_rsa_provider_init)
  %8 = icmp ne i32 %7, 0
  %9 = zext i1 %8 to i32
  %10 = call i32 @test_true(ptr noundef @.str.9, i32 noundef 745, ptr noundef @.str.10, i32 noundef %9)
  %11 = icmp ne i32 %10, 0
  br i1 %11, label %12, label %17

12:                                               ; preds = %1
  %13 = load ptr, ptr %3, align 8, !tbaa !8
  %14 = call ptr @OSSL_PROVIDER_try_load(ptr noundef %13, ptr noundef @.str.11, i32 noundef 1)
  store ptr %14, ptr %4, align 8, !tbaa !11
  %15 = call i32 @test_ptr(ptr noundef @.str.9, i32 noundef 746, ptr noundef @.str.12, ptr noundef %14)
  %16 = icmp ne i32 %15, 0
  br i1 %16, label %18, label %17

17:                                               ; preds = %12, %1
  store ptr null, ptr %2, align 8
  store i32 1, ptr %5, align 4
  br label %20

18:                                               ; preds = %12
  %19 = load ptr, ptr %4, align 8, !tbaa !11
  store ptr %19, ptr %2, align 8
  store i32 1, ptr %5, align 4
  br label %20

20:                                               ; preds = %18, %17
  call void @llvm.lifetime.end.p0(i64 8, ptr %4) #6
  %21 = load ptr, ptr %2, align 8
  ret ptr %21
}