; Function Attrs: nounwind uwtable
define dso_local ptr @fake_rsa_start(ptr noundef %0) local_unnamed_addr #1 {
  %2 = tail call i32 @OSSL_PROVIDER_add_builtin(ptr noundef %0, ptr noundef nonnull @.str.11, ptr noundef nonnull @fake_rsa_provider_init) #12
  %3 = icmp ne i32 %2, 0
  %4 = zext i1 %3 to i32
  %5 = tail call i32 @test_true(ptr noundef nonnull @.str.9, i32 noundef 745, ptr noundef nonnull @.str.10, i32 noundef %4) #12
  %.not = icmp eq i32 %5, 0
  br i1 %.not, label %9, label %6

6:                                                ; preds = %1
  %7 = tail call ptr @OSSL_PROVIDER_try_load(ptr noundef %0, ptr noundef nonnull @.str.11, i32 noundef 1) #12
  %8 = tail call i32 @test_ptr(ptr noundef nonnull @.str.9, i32 noundef 746, ptr noundef nonnull @.str.12, ptr noundef %7) #12
  %.not4 = icmp eq i32 %8, 0
  %spec.select = select i1 %.not4, ptr null, ptr %7
  br label %9

9:                                                ; preds = %6, %1
  %.0 = phi ptr [ null, %1 ], [ %spec.select, %6 ]
  ret ptr %.0
}